target datalayout = "e-m:e-p270:32:32-p271:32:32-p272:64:64-i64:64-i128:128-f80:128-n8:16:32:64-S128"
target triple = "x86_64-pc-linux-gnu"

%struct.redisServer = type { i32, i64, ptr, ptr, ptr, i32, i32, i32, i32, i32, ptr, ptr, ptr, ptr, ptr, i32, i32, i32, i32, i64, i32, i32, i32, i32, ptr, i32, i32, [41 x i8], i32, i64, i32, i32, i32, ptr, ptr, i32, i32, i64, ptr, ptr, ptr, ptr, [2 x i32], i32, i32, i32, i32, i32, i32, [16 x ptr], i32, ptr, ptr, i32, [8 x %struct.connListener], i32, %struct.connListener, ptr, ptr, ptr, ptr, ptr, ptr, ptr, ptr, ptr, ptr, i32, ptr, i32, ptr, [3 x %struct.pause_event], [256 x i8], ptr, i64, i32, i32, [128 x i32], i32, i32, i64, i32, i32, i32, i32, i32, i64, i64, i64, i64, i64, i64, i64, i64, i64, i64, double, i64, i64, i64, i64, i64, i64, i64, i64, i64, i64, i64, i64, i64, i64, i64, i64, i64, i64, i64, i64, i64, double, i64, i64, i64, i64, i64, ptr, i64, i64, i64, %struct.malloc_stats, i64, i64, i64, i64, i64, i64, i64, i64, i64, i64, i64, i64, double, [4 x i64], i64, i64, i64, i64, [128 x i64], [128 x i64], i64, i64, [7 x %struct.anon], i64, i64, i64, i64, i64, i64, [4 x %struct.durationStats], i32, i32, i32, i32, i32, i32, i32, i32, i32, i32, i32, i32, i64, i32, i32, i32, i32, i64, i64, i32, i32, i32, i32, i32, ptr, [3 x %struct.clientBufferLimitsConfig], i32, i32, i32, ptr, i32, i32, i32, i32, i32, i32, ptr, ptr, i32, i32, i64, i64, i64, i64, i64, i32, i32, ptr, i32, i32, i64, i64, i64, i64, i64, i32, i32, i64, i32, i32, i32, i32, i32, i32, i32, i32, ptr, i32, i64, i64, i64, i64, i32, ptr, i32, ptr, i32, i32, i32, i64, i64, i64, i64, i32, i32, i32, i32, i32, i32, ptr, i32, i32, ptr, i32, i32, i32, [2 x i32], i32, %struct.redisOpArray, i32, ptr, i32, ptr, i32, i32, i32, i32, i32, i32, i32, [41 x i8], [41 x i8], i64, i64, i64, i64, i32, i32, ptr, i64, i64, %struct.replDataBuf, i64, i64, i32, i32, i32, i32, i32, i32, i32, i32, i32, i64, ptr, i64, ptr, ptr, ptr, i32, i32, ptr, ptr, i32, i32, i32, i64, i64, i64, i64, ptr, ptr, i32, ptr, i64, i32, i32, i32, i64, i32, i32, i32, i32, ptr, i32, i32, [41 x i8], i64, i32, ptr, i32, i32, i64, i64, i32, i32, i32, i32, i32, i64, [3 x i32], i32, i32, i32, [10 x i32], ptr, ptr, i32, i64, ptr, ptr, i32, i32, i32, i32, i64, i64, i64, i64, i64, i64, i64, i64, i64, i64, i32, i32, i64, i64, i32, i64, i64, i64, i64, i64, ptr, ptr, i32, ptr, i32, i32, i32, i32, i64, i64, ptr, ptr, i32, i32, i32, i32, i32, ptr, ptr, ptr, i32, i32, i32, i32, i32, i32, i32, i64, i32, i32, i64, i32, i32, i32, i32, i32, i32, i32, i64, ptr, ptr, i64, ptr, i32, %struct.aclInfo, i32, i64, i32, i32, i32, %struct.redisTLSContextConfig, ptr, ptr, ptr, ptr, ptr, i64, i32, ptr, i32, i32, i32, i64, i32, ptr }
%struct.connListener = type { [16 x i32], i32, ptr, i32, i32, ptr, ptr }
%struct.pause_event = type { i32, i64 }
%struct.malloc_stats = type { i64, i64, i64, i64, i64, i64, i64, i64, i64, i64, i64 }
%struct.anon = type { i64, i64, [16 x i64], i32 }
%struct.durationStats = type { i64, i64, i64 }
%struct.clientBufferLimitsConfig = type { i64, i64, i64 }
%struct.redisOpArray = type { ptr, i32, i32 }
%struct.replDataBuf = type { ptr, i64, i64, i64, i64 }
%struct.aclInfo = type { i64, i64, i64, i64 }
%struct.redisTLSContextConfig = type { ptr, ptr, ptr, ptr, ptr, ptr, ptr, ptr, ptr, ptr, ptr, ptr, i32, i32, i32, i32 }
%struct.client = type { i64, i64, ptr, i8, i8, i8, i8, i32, ptr, ptr, ptr, ptr, ptr, i64, i64, i32, ptr, i32, i32, ptr, i64, ptr, ptr, ptr, ptr, ptr, i32, i32, i64, ptr, i64, ptr, i64, i64, i64, i32, ptr, i64, i64, i32, i32, i32, i32, i64, i64, ptr, i64, i64, i64, i64, i64, i64, i64, i64, [41 x i8], i32, ptr, i32, i32, i64, %struct.multiState, %struct.blockingState, i64, ptr, ptr, ptr, ptr, ptr, ptr, ptr, ptr, ptr, ptr, ptr, ptr, ptr, ptr, i64, ptr, i64, i32, ptr, ptr, ptr, i64, %struct.listNode, i64, i64, i32, i64, ptr }
%struct.multiState = type { ptr, i32, i32, i32, i64, i32 }
%struct.blockingState = type { i32, i64, i32, ptr, i32, i32, i64, ptr, ptr, i64 }
%struct.listNode = type { ptr, ptr, ptr }
%struct.list = type { ptr, ptr, ptr, ptr, ptr, i64 }
%struct.redisDb = type { ptr, ptr, ptr, ptr, ptr, ptr, ptr, i32, i64, i64, ptr }

@.str = private unnamed_addr constant [113 x i8] c"!(c->flags & CLIENT_MASTER && btype != BLOCKED_MODULE && btype != BLOCKED_LAZYFREE && btype != BLOCKED_POSTPONE)\00", align 1
@.str.1 = private unnamed_addr constant [10 x i8] c"blocked.c\00", align 1
@server = external global %struct.redisServer, align 8

; Function Attrs: nounwind uwtable
define dso_local void @blockClient(ptr noundef %0, i32 noundef %1) #0 {
  %3 = alloca ptr, align 8
  %4 = alloca i32, align 4
  store ptr %0, ptr %3, align 8, !tbaa !5
  store i32 %1, ptr %4, align 4, !tbaa !36
  %5 = load ptr, ptr %3, align 8, !tbaa !5
  %6 = getelementptr inbounds nuw %struct.client, ptr %5, i32 0, i32 1
  %7 = load i64, ptr %6, align 8, !tbaa !37
  %8 = and i64 %7, 2
  %9 = icmp ne i64 %8, 0
  br i1 %9, label %10, label %19

10:                                               ; preds = %2
  %11 = load i32, ptr %4, align 4, !tbaa !36
  %12 = icmp ne i32 %11, 4
  br i1 %12, label %13, label %19

13:                                               ; preds = %10
  %14 = load i32, ptr %4, align 4, !tbaa !36
  %15 = icmp ne i32 %14, 9
  br i1 %15, label %16, label %19

16:                                               ; preds = %13
  %17 = load i32, ptr %4, align 4, !tbaa !36
  %18 = icmp ne i32 %17, 7
  br label %19

19:                                               ; preds = %16, %13, %10, %2
  %20 = phi i1 [ false, %13 ], [ false, %10 ], [ false, %2 ], [ %18, %16 ]
  %21 = xor i1 %20, true
  %22 = xor i1 %21, true
  %23 = xor i1 %22, true
  %24 = zext i1 %23 to i32
  %25 = sext i32 %24 to i64
  %26 = call i64 @llvm.expect.i64(i64 %25, i64 1)
  %27 = icmp ne i64 %26, 0
  br i1 %27, label %28, label %29

28:                                               ; preds = %19
  br label %31

29:                                               ; preds = %19
  call void @_serverAssert(ptr noundef @.str, ptr noundef @.str.1, i32 noundef 72)
  call void @abort() #7
  unreachable

30:                                               ; No predecessors!
  br label %31

31:                                               ; preds = %30, %28
  %32 = load ptr, ptr %3, align 8, !tbaa !5
  %33 = getelementptr inbounds nuw %struct.client, ptr %32, i32 0, i32 1
  %34 = load i64, ptr %33, align 8, !tbaa !37
  %35 = or i64 %34, 16
  store i64 %35, ptr %33, align 8, !tbaa !37
  %36 = load i32, ptr %4, align 4, !tbaa !36
  %37 = load ptr, ptr %3, align 8, !tbaa !5
  %38 = getelementptr inbounds nuw %struct.client, ptr %37, i32 0, i32 61
  %39 = getelementptr inbounds nuw %struct.blockingState, ptr %38, i32 0, i32 0
  store i32 %36, ptr %39, align 8, !tbaa !10
  %40 = load ptr, ptr %3, align 8, !tbaa !5
  %41 = getelementptr inbounds nuw %struct.client, ptr %40, i32 0, i32 1
  %42 = load i64, ptr %41, align 8, !tbaa !37
  %43 = and i64 %42, 134217728
  %44 = icmp ne i64 %43, 0
  br i1 %44, label %48, label %45

45:                                               ; preds = %31
  %46 = load i32, ptr getelementptr inbounds nuw (%struct.redisServer, ptr @server, i32 0, i32 342), align 4, !tbaa !38
  %47 = add i32 %46, 1
  store i32 %47, ptr getelementptr inbounds nuw (%struct.redisServer, ptr @server, i32 0, i32 342), align 4, !tbaa !38
  br label %48

48:                                               ; preds = %45, %31
  %49 = load i32, ptr %4, align 4, !tbaa !36
  %50 = sext i32 %49 to i64
  %51 = getelementptr inbounds [10 x i32], ptr getelementptr inbounds nuw (%struct.redisServer, ptr @server, i32 0, i32 343), i64 0, i64 %50
  %52 = load i32, ptr %51, align 4, !tbaa !36
  %53 = add i32 %52, 1
  store i32 %53, ptr %51, align 4, !tbaa !36
  %54 = load ptr, ptr %3, align 8, !tbaa !5
  call void @addClientToTimeoutTable(ptr noundef %54)
  ret void
}

; Function Attrs: nounwind uwtable
define dso_local void @blockForKeys(ptr noundef %0, i32 noundef %1, ptr noundef %2, i32 noundef %3, i64 noundef %4, i32 noundef %5) #0 {
  %7 = alloca ptr, align 8
  %8 = alloca i32, align 4
  %9 = alloca ptr, align 8
  %10 = alloca i32, align 4
  %11 = alloca i64, align 8
  %12 = alloca i32, align 4
  %13 = alloca ptr, align 8
  %14 = alloca ptr, align 8
  %15 = alloca ptr, align 8
  %16 = alloca ptr, align 8
  %17 = alloca i32, align 4
  store ptr %0, ptr %7, align 8, !tbaa !5
  store i32 %1, ptr %8, align 4, !tbaa !36
  store ptr %2, ptr %9, align 8, !tbaa !109
  store i32 %3, ptr %10, align 4, !tbaa !36
  store i64 %4, ptr %11, align 8, !tbaa !60
  store i32 %5, ptr %12, align 4, !tbaa !36
  call void @llvm.lifetime.start.p0(i64 8, ptr %13) #8
  call void @llvm.lifetime.start.p0(i64 8, ptr %14) #8
  call void @llvm.lifetime.start.p0(i64 8, ptr %15) #8
  call void @llvm.lifetime.start.p0(i64 8, ptr %16) #8
  call void @llvm.lifetime.start.p0(i64 4, ptr %17) #8
  %18 = load ptr, ptr %7, align 8, !tbaa !5
  %19 = getelementptr inbounds nuw %struct.client, ptr %18, i32 0, i32 1
  %20 = load i64, ptr %19, align 8, !tbaa !37
  %21 = and i64 %20, 1125899906842624
  %22 = icmp ne i64 %21, 0
  br i1 %22, label %28, label %23

23:                                               ; preds = %6
  %24 = load i64, ptr %11, align 8, !tbaa !60
  %25 = load ptr, ptr %7, align 8, !tbaa !5
  %26 = getelementptr inbounds nuw %struct.client, ptr %25, i32 0, i32 61
  %27 = getelementptr inbounds nuw %struct.blockingState, ptr %26, i32 0, i32 1
  store i64 %24, ptr %27, align 8, !tbaa !30
  br label %28

28:                                               ; preds = %23, %6
  store i32 0, ptr %17, align 4, !tbaa !36
  br label %29

29:                                               ; preds = %122, %28
  %30 = load i32, ptr %17, align 4, !tbaa !36
  %31 = load i32, ptr %10, align 4, !tbaa !36
  %32 = icmp slt i32 %30, %31
  br i1 %32, label %33, label %125

33:                                               ; preds = %29
  %34 = load ptr, ptr %7, align 8, !tbaa !5
  %35 = getelementptr inbounds nuw %struct.client, ptr %34, i32 0, i32 61
  %36 = getelementptr inbounds nuw %struct.blockingState, ptr %35, i32 0, i32 3
  %37 = load ptr, ptr %36, align 8, !tbaa !31
  %38 = load ptr, ptr %9, align 8, !tbaa !109
  %39 = load i32, ptr %17, align 4, !tbaa !36
  %40 = sext i32 %39 to i64
  %41 = getelementptr inbounds ptr, ptr %38, i64 %40
  %42 = load ptr, ptr %41, align 8, !tbaa !107
  %43 = call ptr @dictAddRaw(ptr noundef %37, ptr noundef %42, ptr noundef null)
  store ptr %43, ptr %15, align 8, !tbaa !85
  %44 = icmp ne ptr %43, null
  br i1 %44, label %46, label %45

45:                                               ; preds = %33
  br label %122

46:                                               ; preds = %33
  %47 = load ptr, ptr %9, align 8, !tbaa !109
  %48 = load i32, ptr %17, align 4, !tbaa !36
  %49 = sext i32 %48 to i64
  %50 = getelementptr inbounds ptr, ptr %47, i64 %49
  %51 = load ptr, ptr %50, align 8, !tbaa !107
  call void @incrRefCount(ptr noundef %51)
  %52 = load ptr, ptr %7, align 8, !tbaa !5
  %53 = getelementptr inbounds nuw %struct.client, ptr %52, i32 0, i32 8
  %54 = load ptr, ptr %53, align 8, !tbaa !110
  %55 = getelementptr inbounds nuw %struct.redisDb, ptr %54, i32 0, i32 3
  %56 = load ptr, ptr %55, align 8, !tbaa !106
  %57 = load ptr, ptr %9, align 8, !tbaa !109
  %58 = load i32, ptr %17, align 4, !tbaa !36
  %59 = sext i32 %58 to i64
  %60 = getelementptr inbounds ptr, ptr %57, i64 %59
  %61 = load ptr, ptr %60, align 8, !tbaa !107
  %62 = call ptr @dictAddRaw(ptr noundef %56, ptr noundef %61, ptr noundef %14)
  store ptr %62, ptr %13, align 8, !tbaa !85
  %63 = load ptr, ptr %13, align 8, !tbaa !85
  %64 = icmp ne ptr %63, null
  br i1 %64, label %65, label %79

65:                                               ; preds = %46
  %66 = call ptr @listCreate()
  store ptr %66, ptr %16, align 8, !tbaa !96
  %67 = load ptr, ptr %7, align 8, !tbaa !5
  %68 = getelementptr inbounds nuw %struct.client, ptr %67, i32 0, i32 8
  %69 = load ptr, ptr %68, align 8, !tbaa !110
  %70 = getelementptr inbounds nuw %struct.redisDb, ptr %69, i32 0, i32 3
  %71 = load ptr, ptr %70, align 8, !tbaa !106
  %72 = load ptr, ptr %13, align 8, !tbaa !85
  %73 = load ptr, ptr %16, align 8, !tbaa !96
  call void @dictSetVal(ptr noundef %71, ptr noundef %72, ptr noundef %73)
  %74 = load ptr, ptr %9, align 8, !tbaa !109
  %75 = load i32, ptr %17, align 4, !tbaa !36
  %76 = sext i32 %75 to i64
  %77 = getelementptr inbounds ptr, ptr %74, i64 %76
  %78 = load ptr, ptr %77, align 8, !tbaa !107
  call void @incrRefCount(ptr noundef %78)
  br label %82

79:                                               ; preds = %46
  %80 = load ptr, ptr %14, align 8, !tbaa !85
  %81 = call ptr @dictGetVal(ptr noundef %80)
  store ptr %81, ptr %16, align 8, !tbaa !96
  br label %82

82:                                               ; preds = %79, %65
  %83 = load ptr, ptr %16, align 8, !tbaa !96
  %84 = load ptr, ptr %7, align 8, !tbaa !5
  %85 = call ptr @listAddNodeTail(ptr noundef %83, ptr noundef %84)
  %86 = load ptr, ptr %7, align 8, !tbaa !5
  %87 = getelementptr inbounds nuw %struct.client, ptr %86, i32 0, i32 61
  %88 = getelementptr inbounds nuw %struct.blockingState, ptr %87, i32 0, i32 3
  %89 = load ptr, ptr %88, align 8, !tbaa !31
  %90 = load ptr, ptr %15, align 8, !tbaa !85
  %91 = load ptr, ptr %16, align 8, !tbaa !96
  %92 = getelementptr inbounds nuw %struct.list, ptr %91, i32 0, i32 1
  %93 = load ptr, ptr %92, align 8, !tbaa !111
  call void @dictSetVal(ptr noundef %89, ptr noundef %90, ptr noundef %93)
  %94 = load i32, ptr %12, align 4, !tbaa !36
  %95 = icmp ne i32 %94, 0
  br i1 %95, label %96, label %121

96:                                               ; preds = %82
  %97 = load ptr, ptr %7, align 8, !tbaa !5
  %98 = getelementptr inbounds nuw %struct.client, ptr %97, i32 0, i32 8
  %99 = load ptr, ptr %98, align 8, !tbaa !110
  %100 = getelementptr inbounds nuw %struct.redisDb, ptr %99, i32 0, i32 4
  %101 = load ptr, ptr %100, align 8, !tbaa !112
  %102 = load ptr, ptr %9, align 8, !tbaa !109
  %103 = load i32, ptr %17, align 4, !tbaa !36
  %104 = sext i32 %103 to i64
  %105 = getelementptr inbounds ptr, ptr %102, i64 %104
  %106 = load ptr, ptr %105, align 8, !tbaa !107
  %107 = call ptr @dictAddRaw(ptr noundef %101, ptr noundef %106, ptr noundef %14)
  store ptr %107, ptr %13, align 8, !tbaa !85
  %108 = load ptr, ptr %13, align 8, !tbaa !85
  %109 = icmp ne ptr %108, null
  br i1 %109, label %110, label %117

110:                                              ; preds = %96
  %111 = load ptr, ptr %9, align 8, !tbaa !109
  %112 = load i32, ptr %17, align 4, !tbaa !36
  %113 = sext i32 %112 to i64
  %114 = getelementptr inbounds ptr, ptr %111, i64 %113
  %115 = load ptr, ptr %114, align 8, !tbaa !107
  call void @incrRefCount(ptr noundef %115)
  %116 = load ptr, ptr %13, align 8, !tbaa !85
  call void @dictSetUnsignedIntegerVal(ptr noundef %116, i64 noundef 1)
  br label %120

117:                                              ; preds = %96
  %118 = load ptr, ptr %14, align 8, !tbaa !85
  %119 = call i64 @dictIncrUnsignedIntegerVal(ptr noundef %118, i64 noundef 1)
  br label %120

120:                                              ; preds = %117, %110
  br label %121

121:                                              ; preds = %120, %82
  br label %122

122:                                              ; preds = %121, %45
  %123 = load i32, ptr %17, align 4, !tbaa !36
  %124 = add nsw i32 %123, 1
  store i32 %124, ptr %17, align 4, !tbaa !36
  br label %29, !llvm.loop !113

125:                                              ; preds = %29
  %126 = load i32, ptr %12, align 4, !tbaa !36
  %127 = load ptr, ptr %7, align 8, !tbaa !5
  %128 = getelementptr inbounds nuw %struct.client, ptr %127, i32 0, i32 61
  %129 = getelementptr inbounds nuw %struct.blockingState, ptr %128, i32 0, i32 2
  store i32 %126, ptr %129, align 8, !tbaa !34
  %130 = load i32, ptr %8, align 4, !tbaa !36
  %131 = icmp ne i32 %130, 4
  br i1 %131, label %132, label %137

132:                                              ; preds = %125
  %133 = load ptr, ptr %7, align 8, !tbaa !5
  %134 = getelementptr inbounds nuw %struct.client, ptr %133, i32 0, i32 1
  %135 = load i64, ptr %134, align 8, !tbaa !37
  %136 = or i64 %135, 1073741824
  store i64 %136, ptr %134, align 8, !tbaa !37
  br label %137

137:                                              ; preds = %132, %125
  %138 = load ptr, ptr %7, align 8, !tbaa !5
  %139 = load i32, ptr %8, align 4, !tbaa !36
  call void @blockClient(ptr noundef %138, i32 noundef %139)
  call void @llvm.lifetime.end.p0(i64 4, ptr %17) #8
  call void @llvm.lifetime.end.p0(i64 8, ptr %16) #8
  call void @llvm.lifetime.end.p0(i64 8, ptr %15) #8
  call void @llvm.lifetime.end.p0(i64 8, ptr %14) #8
  call void @llvm.lifetime.end.p0(i64 8, ptr %13) #8
  ret void
}