; Function Attrs: nounwind uwtable
define dso_local void @blockForKeys(ptr noundef %0, i32 noundef %1, ptr noundef readonly captures(none) %2, i32 noundef %3, i64 noundef %4, i32 noundef %5) local_unnamed_addr #0 {
  %7 = alloca ptr, align 8
  call void @llvm.lifetime.start.p0(i64 8, ptr nonnull %7) #5
  %8 = getelementptr inbounds nuw i8, ptr %0, i64 8
  %9 = load i64, ptr %8, align 8, !tbaa !34
  %10 = and i64 %9, 1125899906842624
  %.not = icmp eq i64 %10, 0
  br i1 %.not, label %11, label %13

11:                                               ; preds = %6
  %12 = getelementptr inbounds nuw i8, ptr %0, i64 488
  store i64 %4, ptr %12, align 8, !tbaa !28
  br label %13

13:                                               ; preds = %11, %6
  %14 = icmp sgt i32 %3, 0
  br i1 %14, label %.lr.ph, label %._crit_edge

.lr.ph:                                           ; preds = %13
  %15 = getelementptr inbounds nuw i8, ptr %0, i64 504
  %16 = getelementptr inbounds nuw i8, ptr %0, i64 32
  %.not48 = icmp eq i32 %5, 0
  %wide.trip.count60 = zext nneg i32 %3 to i64
  br i1 %.not48, label %.lr.ph.split.us, label %.lr.ph.split

.lr.ph.split.us:                                  ; preds = %.lr.ph, %42
  %indvars.iv57 = phi i64 [ %indvars.iv.next58, %42 ], [ 0, %.lr.ph ]
  %17 = load ptr, ptr %15, align 8, !tbaa !29
  %18 = getelementptr inbounds nuw ptr, ptr %2, i64 %indvars.iv57
  %19 = load ptr, ptr %18, align 8, !tbaa !102
  %20 = call ptr @dictAddRaw(ptr noundef %17, ptr noundef %19, ptr noundef null) #5
  %.not46.us = icmp eq ptr %20, null
  br i1 %.not46.us, label %42, label %21

21:                                               ; preds = %.lr.ph.split.us
  %22 = load ptr, ptr %18, align 8, !tbaa !102
  call void @incrRefCount(ptr noundef %22) #5
  %23 = load ptr, ptr %16, align 8, !tbaa !103
  %24 = getelementptr inbounds nuw i8, ptr %23, i64 24
  %25 = load ptr, ptr %24, align 8, !tbaa !95
  %26 = load ptr, ptr %18, align 8, !tbaa !102
  %27 = call ptr @dictAddRaw(ptr noundef %25, ptr noundef %26, ptr noundef nonnull %7) #5
  %.not47.us = icmp eq ptr %27, null
  br i1 %.not47.us, label %34, label %28

28:                                               ; preds = %21
  %29 = call ptr @listCreate() #5
  %30 = load ptr, ptr %16, align 8, !tbaa !103
  %31 = getelementptr inbounds nuw i8, ptr %30, i64 24
  %32 = load ptr, ptr %31, align 8, !tbaa !95
  call void @dictSetVal(ptr noundef %32, ptr noundef nonnull %27, ptr noundef %29) #5
  %33 = load ptr, ptr %18, align 8, !tbaa !102
  call void @incrRefCount(ptr noundef %33) #5
  br label %37

34:                                               ; preds = %21
  %35 = load ptr, ptr %7, align 8, !tbaa !104
  %36 = call ptr @dictGetVal(ptr noundef %35) #5
  br label %37

37:                                               ; preds = %34, %28
  %.038.us = phi ptr [ %29, %28 ], [ %36, %34 ]
  %38 = call ptr @listAddNodeTail(ptr noundef %.038.us, ptr noundef nonnull %0) #5
  %39 = load ptr, ptr %15, align 8, !tbaa !29
  %40 = getelementptr inbounds nuw i8, ptr %.038.us, i64 8
  %41 = load ptr, ptr %40, align 8, !tbaa !105
  call void @dictSetVal(ptr noundef %39, ptr noundef nonnull %20, ptr noundef %41) #5
  br label %42

42:                                               ; preds = %37, %.lr.ph.split.us
  %indvars.iv.next58 = add nuw nsw i64 %indvars.iv57, 1
  %exitcond61.not = icmp eq i64 %indvars.iv.next58, %wide.trip.count60
  br i1 %exitcond61.not, label %._crit_edge, label %.lr.ph.split.us, !llvm.loop !106

.lr.ph.split:                                     ; preds = %.lr.ph, %78
  %indvars.iv = phi i64 [ %indvars.iv.next, %78 ], [ 0, %.lr.ph ]
  %43 = load ptr, ptr %15, align 8, !tbaa !29
  %44 = getelementptr inbounds nuw ptr, ptr %2, i64 %indvars.iv
  %45 = load ptr, ptr %44, align 8, !tbaa !102
  %46 = call ptr @dictAddRaw(ptr noundef %43, ptr noundef %45, ptr noundef null) #5
  %.not46 = icmp eq ptr %46, null
  br i1 %.not46, label %78, label %47

47:                                               ; preds = %.lr.ph.split
  %48 = load ptr, ptr %44, align 8, !tbaa !102
  call void @incrRefCount(ptr noundef %48) #5
  %49 = load ptr, ptr %16, align 8, !tbaa !103
  %50 = getelementptr inbounds nuw i8, ptr %49, i64 24
  %51 = load ptr, ptr %50, align 8, !tbaa !95
  %52 = load ptr, ptr %44, align 8, !tbaa !102
  %53 = call ptr @dictAddRaw(ptr noundef %51, ptr noundef %52, ptr noundef nonnull %7) #5
  %.not47 = icmp eq ptr %53, null
  br i1 %.not47, label %60, label %54

54:                                               ; preds = %47
  %55 = call ptr @listCreate() #5
  %56 = load ptr, ptr %16, align 8, !tbaa !103
  %57 = getelementptr inbounds nuw i8, ptr %56, i64 24
  %58 = load ptr, ptr %57, align 8, !tbaa !95
  call void @dictSetVal(ptr noundef %58, ptr noundef nonnull %53, ptr noundef %55) #5
  %59 = load ptr, ptr %44, align 8, !tbaa !102
  call void @incrRefCount(ptr noundef %59) #5
  br label %63

60:                                               ; preds = %47
  %61 = load ptr, ptr %7, align 8, !tbaa !104
  %62 = call ptr @dictGetVal(ptr noundef %61) #5
  br label %63

63:                                               ; preds = %60, %54
  %.038 = phi ptr [ %55, %54 ], [ %62, %60 ]
  %64 = call ptr @listAddNodeTail(ptr noundef %.038, ptr noundef nonnull %0) #5
  %65 = load ptr, ptr %15, align 8, !tbaa !29
  %66 = getelementptr inbounds nuw i8, ptr %.038, i64 8
  %67 = load ptr, ptr %66, align 8, !tbaa !105
  call void @dictSetVal(ptr noundef %65, ptr noundef nonnull %46, ptr noundef %67) #5
  %68 = load ptr, ptr %16, align 8, !tbaa !103
  %69 = getelementptr inbounds nuw i8, ptr %68, i64 32
  %70 = load ptr, ptr %69, align 8, !tbaa !107
  %71 = load ptr, ptr %44, align 8, !tbaa !102
  %72 = call ptr @dictAddRaw(ptr noundef %70, ptr noundef %71, ptr noundef nonnull %7) #5
  %.not49 = icmp eq ptr %72, null
  br i1 %.not49, label %75, label %73

73:                                               ; preds = %63
  %74 = load ptr, ptr %44, align 8, !tbaa !102
  call void @incrRefCount(ptr noundef %74) #5
  call void @dictSetUnsignedIntegerVal(ptr noundef nonnull %72, i64 noundef 1) #5
  br label %78

75:                                               ; preds = %63
  %76 = load ptr, ptr %7, align 8, !tbaa !104
  %77 = call i64 @dictIncrUnsignedIntegerVal(ptr noundef %76, i64 noundef 1) #5
  br label %78

78:                                               ; preds = %75, %73, %.lr.ph.split
  %indvars.iv.next = add nuw nsw i64 %indvars.iv, 1
  %exitcond.not = icmp eq i64 %indvars.iv.next, %wide.trip.count60
  br i1 %exitcond.not, label %._crit_edge, label %.lr.ph.split, !llvm.loop !106

._crit_edge:                                      ; preds = %78, %42, %13
  %79 = getelementptr inbounds nuw i8, ptr %0, i64 496
  store i32 %5, ptr %79, align 8, !tbaa !32
  %.not45 = icmp eq i32 %1, 4
  %80 = load i64, ptr %8, align 8, !tbaa !34
  %.fr16.i = freeze i64 %80
  br i1 %.not45, label %.split, label %.split40

.split:                                           ; preds = %._crit_edge
  %81 = or i64 %.fr16.i, 16
  store i64 %81, ptr %8, align 8, !tbaa !34
  %82 = getelementptr inbounds nuw i8, ptr %0, i64 480
  store i32 4, ptr %82, align 8, !tbaa !5
  %83 = and i64 %.fr16.i, 134217728
  %.not.i = icmp eq i64 %83, 0
  br i1 %.not.i, label %84, label %blockClient.exit

84:                                               ; preds = %.split
  %85 = load i32, ptr getelementptr inbounds nuw (i8, ptr @server, i64 7588), align 4, !tbaa !35
  %86 = add i32 %85, 1
  store i32 %86, ptr getelementptr inbounds nuw (i8, ptr @server, i64 7588), align 4, !tbaa !35
  br label %blockClient.exit

blockClient.exit:                                 ; preds = %.split, %84
  %87 = load i32, ptr getelementptr inbounds nuw (i8, ptr @server, i64 7608), align 8, !tbaa !56
  %88 = add i32 %87, 1
  store i32 %88, ptr getelementptr inbounds nuw (i8, ptr @server, i64 7608), align 8, !tbaa !56
  br label %104

.split40:                                         ; preds = %._crit_edge
  %89 = or i64 %.fr16.i, 1073741824
  store i64 %89, ptr %8, align 8, !tbaa !34
  %90 = and i64 %.fr16.i, 2
  %91 = icmp eq i64 %90, 0
  br i1 %91, label %93, label %switch.early.test.i51

switch.early.test.i51:                            ; preds = %.split40
  switch i32 %1, label %92 [
    i32 9, label %93
    i32 7, label %93
  ]

92:                                               ; preds = %switch.early.test.i51
  call void @_serverAssert(ptr noundef nonnull @.str, ptr noundef nonnull @.str.1, i32 noundef 72) #5
  call void @abort() #6
  unreachable

93:                                               ; preds = %switch.early.test.i51, %switch.early.test.i51, %.split40
  %94 = or i64 %.fr16.i, 1073741840
  store i64 %94, ptr %8, align 8, !tbaa !34
  %95 = getelementptr inbounds nuw i8, ptr %0, i64 480
  store i32 %1, ptr %95, align 8, !tbaa !5
  %96 = and i64 %.fr16.i, 134217728
  %.not.i52 = icmp eq i64 %96, 0
  br i1 %.not.i52, label %97, label %blockClient.exit53

97:                                               ; preds = %93
  %98 = load i32, ptr getelementptr inbounds nuw (i8, ptr @server, i64 7588), align 4, !tbaa !35
  %99 = add i32 %98, 1
  store i32 %99, ptr getelementptr inbounds nuw (i8, ptr @server, i64 7588), align 4, !tbaa !35
  br label %blockClient.exit53

blockClient.exit53:                               ; preds = %93, %97
  %100 = sext i32 %1 to i64
  %101 = getelementptr inbounds [10 x i32], ptr getelementptr inbounds nuw (i8, ptr @server, i64 7592), i64 0, i64 %100
  %102 = load i32, ptr %101, align 4, !tbaa !56
  %103 = add i32 %102, 1
  store i32 %103, ptr %101, align 4, !tbaa !56
  br label %104

104:                                              ; preds = %blockClient.exit, %blockClient.exit53
  call void @addClientToTimeoutTable(ptr noundef nonnull %0) #5
  call void @llvm.lifetime.end.p0(i64 8, ptr nonnull %7) #5
  ret void
}